#include <math.h>
#include <stdio.h>
#include <stdlib.h>
#include <string.h>

int main()
{
int n,k,i,j;
double x[100],sum,a,s;
scanf("%d",&k);

for(i=0;i<k;i++)
{

scanf("%d",&n);
sum=0;
for(j=0;j<n;j++)
{
scanf("%lf",&x[j]);
sum=sum+x[j];
}

a=sum/n;
s=0;
for(j=0;j<n;j++)
{
s=s+(x[j]-a)*(x[j]-a);
}
s=sqrt(s/n);
printf("%.5f\n",s);
}
return 0;
}

